target datalayout = "e-m:e-p270:32:32-p271:32:32-p272:64:64-i64:64-i128:128-f80:128-n8:16:32:64-S128"
target triple = "x86_64-pc-linux-gnu"

%struct.print_field = type { i32, ptr, ptr, i16 }

@print_fields_parsable_print = dso_local global i32 0, align 4
@fields_delimiter = dso_local global ptr null, align 8
@.str = private unnamed_addr constant [3 x i8] c"%s\00", align 1
@.str.1 = private unnamed_addr constant [5 x i8] c"%s%s\00", align 1
@.str.2 = private unnamed_addr constant [4 x i8] c"%s|\00", align 1
@.str.3 = private unnamed_addr constant [7 x i8] c"%*.*s \00", align 1
@.str.5 = private unnamed_addr constant [8 x i8] c"%-*.*s \00", align 1
@.str.6 = private unnamed_addr constant [1 x i8] zeroinitializer, align 1
@.str.7 = private unnamed_addr constant [2 x i8] c" \00", align 1

; Function Attrs: nounwind uwtable
define dso_local void @print_fields_char_list(ptr noundef %0, ptr noundef %1, i32 noundef %2) #0 {
  %4 = alloca ptr, align 8
  %5 = alloca ptr, align 8
  %6 = alloca i32, align 4
  %7 = alloca i32, align 4
  %8 = alloca ptr, align 8
  %9 = alloca ptr, align 8
  store ptr %0, ptr %4, align 8
  store ptr %1, ptr %5, align 8
  store i32 %2, ptr %6, align 4
  call void @llvm.lifetime.start.p0(i64 4, ptr %7) #10
  %10 = load ptr, ptr %4, align 8
  %11 = getelementptr inbounds nuw %struct.print_field, ptr %10, i32 0, i32 0
  %12 = load i32, ptr %11, align 8
  %13 = call i32 @llvm.abs.i32(i32 %12, i1 true)
  store i32 %13, ptr %7, align 4
  call void @llvm.lifetime.start.p0(i64 8, ptr %8) #10
  store ptr null, ptr %8, align 8
  call void @llvm.lifetime.start.p0(i64 8, ptr %9) #10
  store ptr null, ptr %9, align 8
  %14 = load ptr, ptr %5, align 8
  %15 = icmp ne ptr %14, null
  br i1 %15, label %16, label %19

16:                                               ; preds = %3
  %17 = load ptr, ptr %5, align 8
  %18 = load ptr, ptr %17, align 8
  store ptr %18, ptr %9, align 8
  br label %19

19:                                               ; preds = %16, %3
  %20 = load ptr, ptr %9, align 8
  %21 = icmp ne ptr %20, null
  br i1 %21, label %22, label %26

22:                                               ; preds = %19
  %23 = load ptr, ptr %9, align 8
  %24 = call i32 @list_count(ptr noundef %23)
  %25 = icmp ne i32 %24, 0
  br i1 %25, label %34, label %26

26:                                               ; preds = %22, %19
  %27 = load i32, ptr @print_fields_parsable_print, align 4
  %28 = icmp ne i32 %27, 0
  br i1 %28, label %29, label %31

29:                                               ; preds = %26
  %30 = call ptr @xstrdup(ptr noundef @.str.6)
  store ptr %30, ptr %8, align 8
  br label %33

31:                                               ; preds = %26
  %32 = call ptr @xstrdup(ptr noundef @.str.7)
  store ptr %32, ptr %8, align 8
  br label %33

33:                                               ; preds = %31, %29
  br label %37

34:                                               ; preds = %22
  %35 = load ptr, ptr %9, align 8
  %36 = call ptr @slurm_char_list_to_xstr(ptr noundef %35)
  store ptr %36, ptr %8, align 8
  br label %37

37:                                               ; preds = %34, %33
  %38 = load i32, ptr @print_fields_parsable_print, align 4
  %39 = icmp eq i32 %38, 2
  br i1 %39, label %40, label %46

40:                                               ; preds = %37
  %41 = load i32, ptr %6, align 4
  %42 = icmp ne i32 %41, 0
  br i1 %42, label %43, label %46

43:                                               ; preds = %40
  %44 = load ptr, ptr %8, align 8
  %45 = call i32 (ptr, ...) @printf(ptr noundef @.str, ptr noundef %44)
  br label %100

46:                                               ; preds = %40, %37
  %47 = load i32, ptr @print_fields_parsable_print, align 4
  %48 = icmp ne i32 %47, 0
  br i1 %48, label %49, label %55

49:                                               ; preds = %46
  %50 = load ptr, ptr @fields_delimiter, align 8
  %51 = icmp ne ptr %50, null
  br i1 %51, label %55, label %52

52:                                               ; preds = %49
  %53 = load ptr, ptr %8, align 8
  %54 = call i32 (ptr, ...) @printf(ptr noundef @.str.2, ptr noundef %53)
  br label %99

55:                                               ; preds = %49, %46
  %56 = load i32, ptr @print_fields_parsable_print, align 4
  %57 = icmp ne i32 %56, 0
  br i1 %57, label %58, label %65

58:                                               ; preds = %55
  %59 = load ptr, ptr @fields_delimiter, align 8
  %60 = icmp ne ptr %59, null
  br i1 %60, label %61, label %65

61:                                               ; preds = %58
  %62 = load ptr, ptr %8, align 8
  %63 = load ptr, ptr @fields_delimiter, align 8
  %64 = call i32 (ptr, ...) @printf(ptr noundef @.str.1, ptr noundef %62, ptr noundef %63)
  br label %98

65:                                               ; preds = %58, %55
  %66 = load ptr, ptr %8, align 8
  %67 = icmp ne ptr %66, null
  br i1 %67, label %68, label %97

68:                                               ; preds = %65
  %69 = load ptr, ptr %8, align 8
  %70 = call i64 @strlen(ptr noundef %69) #11
  %71 = load i32, ptr %7, align 4
  %72 = sext i32 %71 to i64
  %73 = icmp ugt i64 %70, %72
  br i1 %73, label %74, label %80

74:                                               ; preds = %68
  %75 = load ptr, ptr %8, align 8
  %76 = load i32, ptr %7, align 4
  %77 = sub nsw i32 %76, 1
  %78 = sext i32 %77 to i64
  %79 = getelementptr inbounds i8, ptr %75, i64 %78
  store i8 43, ptr %79, align 1
  br label %80

80:                                               ; preds = %74, %68
  %81 = load ptr, ptr %4, align 8
  %82 = getelementptr inbounds nuw %struct.print_field, ptr %81, i32 0, i32 0
  %83 = load i32, ptr %82, align 8
  %84 = load i32, ptr %7, align 4
  %85 = icmp eq i32 %83, %84
  br i1 %85, label %86, label %91

86:                                               ; preds = %80
  %87 = load i32, ptr %7, align 4
  %88 = load i32, ptr %7, align 4
  %89 = load ptr, ptr %8, align 8
  %90 = call i32 (ptr, ...) @printf(ptr noundef @.str.3, i32 noundef %87, i32 noundef %88, ptr noundef %89)
  br label %96

91:                                               ; preds = %80
  %92 = load i32, ptr %7, align 4
  %93 = load i32, ptr %7, align 4
  %94 = load ptr, ptr %8, align 8
  %95 = call i32 (ptr, ...) @printf(ptr noundef @.str.5, i32 noundef %92, i32 noundef %93, ptr noundef %94)
  br label %96

96:                                               ; preds = %91, %86
  br label %97

97:                                               ; preds = %96, %65
  br label %98

98:                                               ; preds = %97, %61
  br label %99

99:                                               ; preds = %98, %52
  br label %100

100:                                              ; preds = %99, %43
  call void @slurm_xfree(ptr noundef %8)
  call void @llvm.lifetime.end.p0(i64 8, ptr %9) #10
  call void @llvm.lifetime.end.p0(i64 8, ptr %8) #10
  call void @llvm.lifetime.end.p0(i64 4, ptr %7) #10
  ret void
}