; Function Attrs: nounwind uwtable
define dso_local void @print_fields_char_list(ptr noundef readonly captures(none) %0, ptr noundef readonly captures(address_is_null) %1, i32 noundef %2) local_unnamed_addr #0 {
  %4 = alloca ptr, align 8
  %5 = load i32, ptr %0, align 8
  %6 = tail call i32 @llvm.abs.i32(i32 %5, i1 true)
  call void @llvm.lifetime.start.p0(i64 8, ptr nonnull %4) #11
  %.not = icmp eq ptr %1, null
  br i1 %.not, label %.thread, label %7

7:                                                ; preds = %3
  %8 = load ptr, ptr %1, align 8
  %.not23 = icmp eq ptr %8, null
  br i1 %.not23, label %.thread, label %9

9:                                                ; preds = %7
  %10 = tail call i32 @list_count(ptr noundef nonnull %8) #11
  %.not24 = icmp eq i32 %10, 0
  br i1 %.not24, label %.thread, label %16

.thread:                                          ; preds = %3, %9, %7
  %11 = load i32, ptr @print_fields_parsable_print, align 4
  %.not25 = icmp eq i32 %11, 0
  br i1 %.not25, label %14, label %12

12:                                               ; preds = %.thread
  %13 = tail call ptr @xstrdup(ptr noundef nonnull @.str.6) #11
  br label %18

14:                                               ; preds = %.thread
  %15 = tail call ptr @xstrdup(ptr noundef nonnull @.str.7) #11
  br label %18

16:                                               ; preds = %9
  %17 = tail call ptr @slurm_char_list_to_xstr(ptr noundef nonnull %8) #11
  br label %18

18:                                               ; preds = %12, %14, %16
  %.sink = phi ptr [ %13, %12 ], [ %15, %14 ], [ %17, %16 ]
  store ptr %.sink, ptr %4, align 8
  %19 = load i32, ptr @print_fields_parsable_print, align 4
  %20 = icmp eq i32 %19, 2
  %21 = icmp ne i32 %2, 0
  %or.cond = and i1 %21, %20
  br i1 %or.cond, label %22, label %24

22:                                               ; preds = %18
  %23 = tail call i32 (ptr, ...) @printf(ptr noundef nonnull dereferenceable(1) @.str, ptr noundef %.sink)
  br label %49

24:                                               ; preds = %18
  %25 = icmp eq i32 %19, 0
  %26 = load ptr, ptr @fields_delimiter, align 8
  %27 = icmp ne ptr %26, null
  %or.cond3 = select i1 %25, i1 true, i1 %27
  br i1 %or.cond3, label %30, label %28

28:                                               ; preds = %24
  %29 = tail call i32 (ptr, ...) @printf(ptr noundef nonnull dereferenceable(1) @.str.2, ptr noundef %.sink)
  br label %49

30:                                               ; preds = %24
  %31 = icmp ne i32 %19, 0
  %or.cond5 = select i1 %31, i1 %27, i1 false
  br i1 %or.cond5, label %32, label %34

32:                                               ; preds = %30
  %33 = tail call i32 (ptr, ...) @printf(ptr noundef nonnull dereferenceable(1) @.str.1, ptr noundef %.sink, ptr noundef nonnull %26)
  br label %49

34:                                               ; preds = %30
  %.not26 = icmp eq ptr %.sink, null
  br i1 %.not26, label %49, label %35

35:                                               ; preds = %34
  %36 = tail call i64 @strlen(ptr noundef nonnull dereferenceable(1) %.sink) #12
  %37 = zext nneg i32 %6 to i64
  %38 = icmp ugt i64 %36, %37
  br i1 %38, label %39, label %42

39:                                               ; preds = %35
  %40 = getelementptr i8, ptr %.sink, i64 %37
  %41 = getelementptr i8, ptr %40, i64 -1
  store i8 43, ptr %41, align 1
  br label %42

42:                                               ; preds = %39, %35
  %43 = load i32, ptr %0, align 8
  %44 = icmp eq i32 %43, %6
  br i1 %44, label %45, label %47

45:                                               ; preds = %42
  %46 = tail call i32 (ptr, ...) @printf(ptr noundef nonnull dereferenceable(1) @.str.3, i32 noundef %6, i32 noundef %6, ptr noundef nonnull %.sink)
  br label %49

47:                                               ; preds = %42
  %48 = tail call i32 (ptr, ...) @printf(ptr noundef nonnull dereferenceable(1) @.str.5, i32 noundef %6, i32 noundef %6, ptr noundef nonnull %.sink)
  br label %49

49:                                               ; preds = %28, %34, %47, %45, %32, %22
  call void @slurm_xfree(ptr noundef nonnull %4) #11
  call void @llvm.lifetime.end.p0(i64 8, ptr nonnull %4) #11
  ret void
}